; ModuleID = 'source-C-CXX/24/36.cpp'
source_filename = "source-C-CXX/24/36.cpp"
target datalayout = "e-m:e-p270:32:32-p271:32:32-p272:64:64-i64:64-f80:128-n8:16:32:64-S128"
target triple = "x86_64-pc-linux-gnu"

%"class.std::ios_base::Init" = type { i8 }
%"class.std::basic_istream" = type { i32 (...)**, i64, %"class.std::basic_ios" }
%"class.std::basic_ios" = type { %"class.std::ios_base", %"class.std::basic_ostream"*, i8, i8, %"class.std::basic_streambuf"*, %"class.std::ctype"*, %"class.std::num_put"*, %"class.std::num_get"* }
%"class.std::ios_base" = type { i32 (...)**, i64, i64, i32, i32, i32, %"struct.std::ios_base::_Callback_list"*, %"struct.std::ios_base::_Words", [8 x %"struct.std::ios_base::_Words"], i32, %"struct.std::ios_base::_Words"*, %"class.std::locale" }
%"struct.std::ios_base::_Callback_list" = type { %"struct.std::ios_base::_Callback_list"*, void (i32, %"class.std::ios_base"*, i32)*, i32, i32 }
%"struct.std::ios_base::_Words" = type { i8*, i64 }
%"class.std::locale" = type { %"class.std::locale::_Impl"* }
%"class.std::locale::_Impl" = type { i32, %"class.std::locale::facet"**, i64, %"class.std::locale::facet"**, i8** }
%"class.std::locale::facet" = type <{ i32 (...)**, i32, [4 x i8] }>
%"class.std::basic_ostream" = type { i32 (...)**, %"class.std::basic_ios" }
%"class.std::basic_streambuf" = type { i32 (...)**, i8*, i8*, i8*, i8*, i8*, i8*, %"class.std::locale" }
%"class.std::ctype" = type <{ %"class.std::locale::facet.base", [4 x i8], %struct.__locale_struct*, i8, [7 x i8], i32*, i32*, i16*, i8, [256 x i8], [256 x i8], i8, [6 x i8] }>
%"class.std::locale::facet.base" = type <{ i32 (...)**, i32 }>
%struct.__locale_struct = type { [13 x %struct.__locale_data*], i16*, i32*, i32*, [13 x i8*] }
%struct.__locale_data = type opaque
%"class.std::num_put" = type { %"class.std::locale::facet.base", [4 x i8] }
%"class.std::num_get" = type { %"class.std::locale::facet.base", [4 x i8] }

@_ZStL8__ioinit = internal global %"class.std::ios_base::Init" zeroinitializer, align 1
@__dso_handle = external hidden global i8
@g_ans = dso_local global [1000 x i8] zeroinitializer, align 16
@_ZSt3cin = external global %"class.std::basic_istream", align 8
@_ZSt4cout = external global %"class.std::basic_ostream", align 8
@llvm.global_ctors = appending global [1 x { i32, void ()*, i8* }] [{ i32, void ()*, i8* } { i32 65535, void ()* @_GLOBAL__sub_I_36.cpp, i8* null }]

declare void @_ZNSt8ios_base4InitC1Ev(%"class.std::ios_base::Init"* nonnull align 1 dereferenceable(1)) unnamed_addr #0

; Function Attrs: nounwind
declare void @_ZNSt8ios_base4InitD1Ev(%"class.std::ios_base::Init"* nonnull align 1 dereferenceable(1)) unnamed_addr #1

; Function Attrs: nofree nounwind
declare i32 @__cxa_atexit(void (i8*)*, i8*, i8*) local_unnamed_addr #2

; Function Attrs: mustprogress nofree norecurse nosync nounwind readnone sspstrong uwtable willreturn
define dso_local i32 @_Z4ctoic(i8 signext %0) local_unnamed_addr #3 {
  %2 = sext i8 %0 to i32
  %3 = add nsw i32 %2, -48
  ret i32 %3
}

; Function Attrs: mustprogress norecurse sspstrong uwtable
define dso_local i32 @main() local_unnamed_addr #4 {
  %1 = alloca i32, align 4
  %2 = bitcast i32* %1 to i8*
  call void @llvm.lifetime.start.p0i8(i64 4, i8* nonnull %2) #10
  %3 = call nonnull align 8 dereferenceable(16) %"class.std::basic_istream"* @_ZNSirsERi(%"class.std::basic_istream"* nonnull align 8 dereferenceable(16) @_ZSt3cin, i32* nonnull align 4 dereferenceable(4) %1)
  call void @llvm.memset.p0i8.i64(i8* noundef nonnull align 16 dereferenceable(1000) getelementptr inbounds ([1000 x i8], [1000 x i8]* @g_ans, i64 0, i64 0), i8 0, i64 1000, i1 false)
  store i8 49, i8* getelementptr inbounds ([1000 x i8], [1000 x i8]* @g_ans, i64 0, i64 0), align 16, !tbaa !5
  %4 = load i32, i32* %1, align 4, !tbaa !8
  %5 = add nsw i32 %4, -1
  store i32 %5, i32* %1, align 4, !tbaa !8
  %6 = icmp eq i32 %4, 0
  br i1 %6, label %49, label %11

7:                                                ; preds = %46, %11, %17
  %8 = load i32, i32* %1, align 4, !tbaa !8
  %9 = add nsw i32 %8, -1
  store i32 %9, i32* %1, align 4, !tbaa !8
  %10 = icmp eq i32 %8, 0
  br i1 %10, label %49, label %11, !llvm.loop !10

11:                                               ; preds = %0, %7
  %12 = call i64 @strlen(i8* noundef nonnull dereferenceable(1) getelementptr inbounds ([1000 x i8], [1000 x i8]* @g_ans, i64 0, i64 0)) #11
  %13 = trunc i64 %12 to i32
  %14 = icmp eq i32 %13, 0
  br i1 %14, label %7, label %15

15:                                               ; preds = %11
  %16 = and i64 %12, 4294967295
  br label %20

17:                                               ; preds = %20
  br i1 %14, label %7, label %18

18:                                               ; preds = %17
  %19 = and i64 %12, 4294967295
  br label %30

20:                                               ; preds = %15, %20
  %21 = phi i64 [ 0, %15 ], [ %28, %20 ]
  %22 = trunc i64 %21 to i32
  %23 = shl i32 %22, 24
  %24 = ashr exact i32 %23, 23
  %25 = add nsw i32 %24, -96
  %26 = call signext i8 @_Z4itoci(i32 %25)
  %27 = getelementptr inbounds [1000 x i8], [1000 x i8]* @g_ans, i64 0, i64 %21
  store i8 %26, i8* %27, align 1, !tbaa !5
  %28 = add nuw nsw i64 %21, 1
  %29 = icmp eq i64 %28, %16
  br i1 %29, label %17, label %20, !llvm.loop !12

30:                                               ; preds = %18, %46
  %31 = phi i64 [ 0, %18 ], [ %47, %46 ]
  %32 = getelementptr inbounds [1000 x i8], [1000 x i8]* @g_ans, i64 0, i64 %31
  %33 = load i8, i8* %32, align 1, !tbaa !5
  %34 = icmp sgt i8 %33, 57
  br i1 %34, label %37, label %35

35:                                               ; preds = %30
  %36 = add nuw nsw i64 %31, 1
  br label %46

37:                                               ; preds = %30
  %38 = add nsw i8 %33, -10
  store i8 %38, i8* %32, align 1, !tbaa !5
  %39 = add nuw nsw i64 %31, 1
  %40 = getelementptr inbounds [1000 x i8], [1000 x i8]* @g_ans, i64 0, i64 %39
  %41 = load i8, i8* %40, align 1, !tbaa !5
  %42 = icmp eq i8 %41, 0
  br i1 %42, label %45, label %43

43:                                               ; preds = %37
  %44 = add i8 %41, 1
  store i8 %44, i8* %40, align 1, !tbaa !5
  br label %46

45:                                               ; preds = %37
  store i8 49, i8* %40, align 1, !tbaa !5
  br label %46

46:                                               ; preds = %35, %45, %43
  %47 = phi i64 [ %36, %35 ], [ %39, %45 ], [ %39, %43 ]
  %48 = icmp eq i64 %47, %19
  br i1 %48, label %7, label %30, !llvm.loop !13

49:                                               ; preds = %7, %0
  %50 = call i64 @strlen(i8* noundef nonnull dereferenceable(1) getelementptr inbounds ([1000 x i8], [1000 x i8]* @g_ans, i64 0, i64 0)) #11
  %51 = icmp eq i64 %50, 0
  br i1 %51, label %61, label %52

52:                                               ; preds = %49
  %53 = add i64 %50, -1
  %54 = getelementptr inbounds [1000 x i8], [1000 x i8]* @g_ans, i64 0, i64 %53
  br label %55

55:                                               ; preds = %52, %55
  %56 = phi i8* [ %57, %55 ], [ %54, %52 ]
  %57 = getelementptr inbounds i8, i8* %56, i64 -1
  %58 = load i8, i8* %56, align 1, !tbaa !5
  %59 = call nonnull align 8 dereferenceable(8) %"class.std::basic_ostream"* @_ZNSo3putEc(%"class.std::basic_ostream"* nonnull align 8 dereferenceable(8) @_ZSt4cout, i8 signext %58)
  %60 = icmp eq i8* %57, getelementptr inbounds ([1000 x i8], [1000 x i8]* @g_ans, i64 0, i64 -1)
  br i1 %60, label %61, label %55, !llvm.loop !14

61:                                               ; preds = %55, %49
  %62 = load i8*, i8** bitcast (%"class.std::basic_ostream"* @_ZSt4cout to i8**), align 8, !tbaa !15
  %63 = getelementptr i8, i8* %62, i64 -24
  %64 = bitcast i8* %63 to i64*
  %65 = load i64, i64* %64, align 8
  %66 = add nsw i64 %65, 240
  %67 = getelementptr inbounds i8, i8* bitcast (%"class.std::basic_ostream"* @_ZSt4cout to i8*), i64 %66
  %68 = bitcast i8* %67 to %"class.std::ctype"**
  %69 = load %"class.std::ctype"*, %"class.std::ctype"** %68, align 8, !tbaa !17
  %70 = icmp eq %"class.std::ctype"* %69, null
  br i1 %70, label %71, label %72

71:                                               ; preds = %61
  call void @_ZSt16__throw_bad_castv() #12
  unreachable

72:                                               ; preds = %61
  %73 = getelementptr inbounds %"class.std::ctype", %"class.std::ctype"* %69, i64 0, i32 8
  %74 = load i8, i8* %73, align 8, !tbaa !21
  %75 = icmp eq i8 %74, 0
  br i1 %75, label %79, label %76

76:                                               ; preds = %72
  %77 = getelementptr inbounds %"class.std::ctype", %"class.std::ctype"* %69, i64 0, i32 9, i64 10
  %78 = load i8, i8* %77, align 1, !tbaa !5
  br label %85

79:                                               ; preds = %72
  call void @_ZNKSt5ctypeIcE13_M_widen_initEv(%"class.std::ctype"* nonnull align 8 dereferenceable(570) %69)
  %80 = bitcast %"class.std::ctype"* %69 to i8 (%"class.std::ctype"*, i8)***
  %81 = load i8 (%"class.std::ctype"*, i8)**, i8 (%"class.std::ctype"*, i8)*** %80, align 8, !tbaa !15
  %82 = getelementptr inbounds i8 (%"class.std::ctype"*, i8)*, i8 (%"class.std::ctype"*, i8)** %81, i64 6
  %83 = load i8 (%"class.std::ctype"*, i8)*, i8 (%"class.std::ctype"*, i8)** %82, align 8
  %84 = call signext i8 %83(%"class.std::ctype"* nonnull align 8 dereferenceable(570) %69, i8 signext 10)
  br label %85

85:                                               ; preds = %76, %79
  %86 = phi i8 [ %78, %76 ], [ %84, %79 ]
  %87 = call nonnull align 8 dereferenceable(8) %"class.std::basic_ostream"* @_ZNSo3putEc(%"class.std::basic_ostream"* nonnull align 8 dereferenceable(8) @_ZSt4cout, i8 signext %86)
  %88 = call nonnull align 8 dereferenceable(8) %"class.std::basic_ostream"* @_ZNSo5flushEv(%"class.std::basic_ostream"* nonnull align 8 dereferenceable(8) %87)
  call void @llvm.lifetime.end.p0i8(i64 4, i8* nonnull %2) #10
  ret i32 0
}

; Function Attrs: argmemonly mustprogress nofree nosync nounwind willreturn
declare void @llvm.lifetime.start.p0i8(i64 immarg, i8* nocapture) #5

declare nonnull align 8 dereferenceable(16) %"class.std::basic_istream"* @_ZNSirsERi(%"class.std::basic_istream"* nonnull align 8 dereferenceable(16), i32* nonnull align 4 dereferenceable(4)) local_unnamed_addr #0

; Function Attrs: argmemonly mustprogress nofree nounwind willreturn writeonly
declare void @llvm.memset.p0i8.i64(i8* nocapture writeonly, i8, i64, i1 immarg) #6

; Function Attrs: argmemonly mustprogress nofree nounwind readonly willreturn
declare i64 @strlen(i8* nocapture) local_unnamed_addr #7

declare signext i8 @_Z4itoci(i32) local_unnamed_addr #0

declare nonnull align 8 dereferenceable(8) %"class.std::basic_ostream"* @_ZNSo3putEc(%"class.std::basic_ostream"* nonnull align 8 dereferenceable(8), i8 signext) local_unnamed_addr #0

; Function Attrs: argmemonly mustprogress nofree nosync nounwind willreturn
declare void @llvm.lifetime.end.p0i8(i64 immarg, i8* nocapture) #5

declare nonnull align 8 dereferenceable(8) %"class.std::basic_ostream"* @_ZNSo5flushEv(%"class.std::basic_ostream"* nonnull align 8 dereferenceable(8)) local_unnamed_addr #0

; Function Attrs: noreturn
declare void @_ZSt16__throw_bad_castv() local_unnamed_addr #8

declare void @_ZNKSt5ctypeIcE13_M_widen_initEv(%"class.std::ctype"* nonnull align 8 dereferenceable(570)) local_unnamed_addr #0

; Function Attrs: sspstrong uwtable
define internal void @_GLOBAL__sub_I_36.cpp() #9 section ".text.startup" {
  tail call void @_ZNSt8ios_base4InitC1Ev(%"class.std::ios_base::Init"* nonnull align 1 dereferenceable(1) @_ZStL8__ioinit)
  %1 = tail call i32 @__cxa_atexit(void (i8*)* bitcast (void (%"class.std::ios_base::Init"*)* @_ZNSt8ios_base4InitD1Ev to void (i8*)*), i8* getelementptr inbounds (%"class.std::ios_base::Init", %"class.std::ios_base::Init"* @_ZStL8__ioinit, i64 0, i32 0), i8* nonnull @__dso_handle) #10
  ret void
}


!llvm.module.flags = !{!0, !1, !2, !3}
!llvm.ident = !{!4}

!0 = !{i32 1, !"wchar_size", i32 4}
!1 = !{i32 7, !"PIC Level", i32 2}
!2 = !{i32 7, !"PIE Level", i32 2}
!3 = !{i32 7, !"uwtable", i32 1}
!4 = !{!"clang version 13.0.0"}
!5 = !{!6, !6, i64 0}
!6 = !{!"omnipotent char", !7, i64 0}
!7 = !{!"Simple C++ TBAA"}
!8 = !{!9, !9, i64 0}
!9 = !{!"int", !6, i64 0}
!10 = distinct !{!10, !11}
!11 = !{!"llvm.loop.mustprogress"}
!12 = distinct !{!12, !11}
!13 = distinct !{!13, !11}
!14 = distinct !{!14, !11}
!15 = !{!16, !16, i64 0}
!16 = !{!"vtable pointer", !7, i64 0}
!17 = !{!18, !19, i64 240}
!18 = !{!"_ZTSSt9basic_iosIcSt11char_traitsIcEE", !19, i64 216, !6, i64 224, !20, i64 225, !19, i64 232, !19, i64 240, !19, i64 248, !19, i64 256}
!19 = !{!"any pointer", !6, i64 0}
!20 = !{!"bool", !6, i64 0}
!21 = !{!22, !6, i64 56}
!22 = !{!"_ZTSSt5ctypeIcE", !19, i64 16, !20, i64 24, !19, i64 32, !19, i64 40, !19, i64 48, !6, i64 56, !6, i64 57, !6, i64 313, !6, i64 569}
